target datalayout = "e-m:e-p270:32:32-p271:32:32-p272:64:64-i64:64-i128:128-f80:128-n8:16:32:64-S128"
target triple = "x86_64-pc-linux-gnu"

%struct.redisServer = type { i32, i64, ptr, ptr, ptr, i32, i32, i32, i32, i32, ptr, ptr, ptr, ptr, ptr, i32, i32, i32, i32, i64, i32, i32, i32, i32, ptr, i32, i32, [41 x i8], i32, i64, i32, i32, i32, ptr, ptr, i32, i32, i64, ptr, ptr, ptr, ptr, [2 x i32], i32, i32, i32, i32, i32, i32, [16 x ptr], i32, ptr, ptr, i32, [8 x %struct.connListener], i32, %struct.connListener, ptr, ptr, ptr, ptr, ptr, ptr, ptr, ptr, ptr, ptr, i32, ptr, i32, ptr, [3 x %struct.pause_event], [256 x i8], ptr, i64, i32, i32, [128 x i32], i32, i32, i64, i32, i32, i32, i32, i32, i64, i64, i64, i64, i64, i64, i64, i64, i64, i64, double, i64, i64, i64, i64, i64, i64, i64, i64, i64, i64, i64, i64, i64, i64, i64, i64, i64, i64, i64, i64, i64, double, i64, i64, i64, i64, i64, ptr, i64, i64, i64, %struct.malloc_stats, i64, i64, i64, i64, i64, i64, i64, i64, i64, i64, i64, i64, double, [4 x i64], i64, i64, i64, i64, [128 x i64], [128 x i64], i64, i64, [7 x %struct.anon], i64, i64, i64, i64, i64, i64, [4 x %struct.durationStats], i32, i32, i32, i32, i32, i32, i32, i32, i32, i32, i32, i32, i64, i32, i32, i32, i32, i64, i64, i32, i32, i32, i32, i32, ptr, [3 x %struct.clientBufferLimitsConfig], i32, i32, i32, ptr, i32, i32, i32, i32, i32, i32, ptr, ptr, i32, i32, i64, i64, i64, i64, i64, i32, i32, ptr, i32, i32, i64, i64, i64, i64, i64, i32, i32, i64, i32, i32, i32, i32, i32, i32, i32, i32, ptr, i32, i64, i64, i64, i64, i32, ptr, i32, ptr, i32, i32, i32, i64, i64, i64, i64, i32, i32, i32, i32, i32, i32, ptr, i32, i32, ptr, i32, i32, i32, [2 x i32], i32, %struct.redisOpArray, i32, ptr, i32, ptr, i32, i32, i32, i32, i32, i32, i32, [41 x i8], [41 x i8], i64, i64, i64, i64, i32, i32, ptr, i64, i64, %struct.replDataBuf, i64, i64, i32, i32, i32, i32, i32, i32, i32, i32, i32, i64, ptr, i64, ptr, ptr, ptr, i32, i32, ptr, ptr, i32, i32, i32, i64, i64, i64, i64, ptr, ptr, i32, ptr, i64, i32, i32, i32, i64, i32, i32, i32, i32, ptr, i32, i32, [41 x i8], i64, i32, ptr, i32, i32, i64, i64, i32, i32, i32, i32, i32, i64, [3 x i32], i32, i32, i32, [10 x i32], ptr, ptr, i32, i64, ptr, ptr, i32, i32, i32, i32, i64, i64, i64, i64, i64, i64, i64, i64, i64, i64, i32, i32, i64, i64, i32, i64, i64, i64, i64, i64, ptr, ptr, i32, ptr, i32, i32, i32, i32, i64, i64, ptr, ptr, i32, i32, i32, i32, i32, ptr, ptr, ptr, i32, i32, i32, i32, i32, i32, i32, i64, i32, i32, i64, i32, i32, i32, i32, i32, i32, i32, i64, ptr, ptr, i64, ptr, i32, %struct.aclInfo, i32, i64, i32, i32, i32, %struct.redisTLSContextConfig, ptr, ptr, ptr, ptr, ptr, i64, i32, ptr, i32, i32, i32, i64, i32, ptr }
%struct.connListener = type { [16 x i32], i32, ptr, i32, i32, ptr, ptr }
%struct.pause_event = type { i32, i64 }
%struct.malloc_stats = type { i64, i64, i64, i64, i64, i64, i64, i64, i64, i64, i64 }
%struct.anon = type { i64, i64, [16 x i64], i32 }
%struct.durationStats = type { i64, i64, i64 }
%struct.clientBufferLimitsConfig = type { i64, i64, i64 }
%struct.redisOpArray = type { ptr, i32, i32 }
%struct.replDataBuf = type { ptr, i64, i64, i64, i64 }
%struct.aclInfo = type { i64, i64, i64, i64 }
%struct.redisTLSContextConfig = type { ptr, ptr, ptr, ptr, ptr, ptr, ptr, ptr, ptr, ptr, ptr, ptr, i32, i32, i32, i32 }
%struct.aclSelector = type { i32, [16 x i64], ptr, ptr, ptr, ptr }
%struct.list = type { ptr, ptr, ptr, ptr, ptr, i64 }

@server = external global %struct.redisServer, align 8

; Function Attrs: nounwind uwtable
define dso_local ptr @ACLCreateSelector(i32 noundef %0) #0 {
  %2 = alloca i32, align 4
  %3 = alloca ptr, align 8
  store i32 %0, ptr %2, align 4, !tbaa !17
  call void @llvm.lifetime.start.p0(i64 8, ptr %3) #14
  %4 = call noalias ptr @zmalloc(i64 noundef 168) #13
  store ptr %4, ptr %3, align 8, !tbaa !32
  %5 = load i32, ptr %2, align 4, !tbaa !17
  %6 = load i32, ptr getelementptr inbounds nuw (%struct.redisServer, ptr @server, i32 0, i32 417), align 8, !tbaa !38
  %7 = or i32 %5, %6
  %8 = load ptr, ptr %3, align 8, !tbaa !32
  %9 = getelementptr inbounds nuw %struct.aclSelector, ptr %8, i32 0, i32 0
  store i32 %7, ptr %9, align 8, !tbaa !64
  %10 = call ptr @listCreate()
  %11 = load ptr, ptr %3, align 8, !tbaa !32
  %12 = getelementptr inbounds nuw %struct.aclSelector, ptr %11, i32 0, i32 3
  store ptr %10, ptr %12, align 8, !tbaa !67
  %13 = call ptr @listCreate()
  %14 = load ptr, ptr %3, align 8, !tbaa !32
  %15 = getelementptr inbounds nuw %struct.aclSelector, ptr %14, i32 0, i32 4
  store ptr %13, ptr %15, align 8, !tbaa !68
  %16 = load ptr, ptr %3, align 8, !tbaa !32
  %17 = getelementptr inbounds nuw %struct.aclSelector, ptr %16, i32 0, i32 2
  store ptr null, ptr %17, align 8, !tbaa !69
  %18 = call ptr @sdsempty()
  %19 = load ptr, ptr %3, align 8, !tbaa !32
  %20 = getelementptr inbounds nuw %struct.aclSelector, ptr %19, i32 0, i32 5
  store ptr %18, ptr %20, align 8, !tbaa !70
  %21 = load ptr, ptr %3, align 8, !tbaa !32
  %22 = getelementptr inbounds nuw %struct.aclSelector, ptr %21, i32 0, i32 3
  %23 = load ptr, ptr %22, align 8, !tbaa !67
  %24 = getelementptr inbounds nuw %struct.list, ptr %23, i32 0, i32 4
  store ptr @ACLListMatchKeyPattern, ptr %24, align 8, !tbaa !71
  %25 = load ptr, ptr %3, align 8, !tbaa !32
  %26 = getelementptr inbounds nuw %struct.aclSelector, ptr %25, i32 0, i32 3
  %27 = load ptr, ptr %26, align 8, !tbaa !67
  %28 = getelementptr inbounds nuw %struct.list, ptr %27, i32 0, i32 3
  store ptr @ACLListFreeKeyPattern, ptr %28, align 8, !tbaa !74
  %29 = load ptr, ptr %3, align 8, !tbaa !32
  %30 = getelementptr inbounds nuw %struct.aclSelector, ptr %29, i32 0, i32 3
  %31 = load ptr, ptr %30, align 8, !tbaa !67
  %32 = getelementptr inbounds nuw %struct.list, ptr %31, i32 0, i32 2
  store ptr @ACLListDupKeyPattern, ptr %32, align 8, !tbaa !75
  %33 = load ptr, ptr %3, align 8, !tbaa !32
  %34 = getelementptr inbounds nuw %struct.aclSelector, ptr %33, i32 0, i32 4
  %35 = load ptr, ptr %34, align 8, !tbaa !68
  %36 = getelementptr inbounds nuw %struct.list, ptr %35, i32 0, i32 4
  store ptr @ACLListMatchSds, ptr %36, align 8, !tbaa !71
  %37 = load ptr, ptr %3, align 8, !tbaa !32
  %38 = getelementptr inbounds nuw %struct.aclSelector, ptr %37, i32 0, i32 4
  %39 = load ptr, ptr %38, align 8, !tbaa !68
  %40 = getelementptr inbounds nuw %struct.list, ptr %39, i32 0, i32 3
  store ptr @ACLListFreeSds, ptr %40, align 8, !tbaa !74
  %41 = load ptr, ptr %3, align 8, !tbaa !32
  %42 = getelementptr inbounds nuw %struct.aclSelector, ptr %41, i32 0, i32 4
  %43 = load ptr, ptr %42, align 8, !tbaa !68
  %44 = getelementptr inbounds nuw %struct.list, ptr %43, i32 0, i32 2
  store ptr @ACLListDupSds, ptr %44, align 8, !tbaa !75
  %45 = load ptr, ptr %3, align 8, !tbaa !32
  %46 = getelementptr inbounds nuw %struct.aclSelector, ptr %45, i32 0, i32 1
  %47 = getelementptr inbounds [16 x i64], ptr %46, i64 0, i64 0
  call void @llvm.memset.p0.i64(ptr align 8 %47, i8 0, i64 128, i1 false)
  %48 = load ptr, ptr %3, align 8, !tbaa !32
  call void @llvm.lifetime.end.p0(i64 8, ptr %3) #14
  ret ptr %48
}