; Function Attrs: nounwind uwtable
define dso_local noalias noundef ptr @ACLCreateSelector(i32 noundef %0) local_unnamed_addr #0 {
  %2 = tail call noalias dereferenceable_or_null(168) ptr @zmalloc(i64 noundef 168) #26
  %3 = load i32, ptr getelementptr inbounds nuw (i8, ptr @server, i64 8104), align 8, !tbaa !34
  %4 = or i32 %3, %0
  store i32 %4, ptr %2, align 8, !tbaa !61
  %5 = tail call ptr @listCreate() #25
  %6 = getelementptr inbounds nuw i8, ptr %2, i64 144
  store ptr %5, ptr %6, align 8, !tbaa !64
  %7 = tail call ptr @listCreate() #25
  %8 = getelementptr inbounds nuw i8, ptr %2, i64 152
  store ptr %7, ptr %8, align 8, !tbaa !65
  %9 = getelementptr inbounds nuw i8, ptr %2, i64 136
  store ptr null, ptr %9, align 8, !tbaa !66
  %10 = tail call ptr @sdsempty() #25
  %11 = getelementptr inbounds nuw i8, ptr %2, i64 160
  store ptr %10, ptr %11, align 8, !tbaa !67
  %12 = getelementptr inbounds nuw i8, ptr %5, i64 32
  store ptr @ACLListMatchKeyPattern, ptr %12, align 8, !tbaa !68
  %13 = getelementptr inbounds nuw i8, ptr %5, i64 24
  store ptr @ACLListFreeKeyPattern, ptr %13, align 8, !tbaa !71
  %14 = getelementptr inbounds nuw i8, ptr %5, i64 16
  store ptr @ACLListDupKeyPattern, ptr %14, align 8, !tbaa !72
  %15 = getelementptr inbounds nuw i8, ptr %7, i64 32
  store ptr @ACLListMatchSds, ptr %15, align 8, !tbaa !68
  %16 = getelementptr inbounds nuw i8, ptr %7, i64 24
  store ptr @ACLListFreeSds, ptr %16, align 8, !tbaa !71
  %17 = getelementptr inbounds nuw i8, ptr %7, i64 16
  store ptr @ACLListDupSds, ptr %17, align 8, !tbaa !72
  %18 = getelementptr inbounds nuw i8, ptr %2, i64 8
  tail call void @llvm.memset.p0.i64(ptr noundef nonnull align 8 dereferenceable(128) %18, i8 0, i64 128, i1 false)
  ret ptr %2
}